target datalayout = "e-m:e-p270:32:32-p271:32:32-p272:64:64-i64:64-i128:128-f80:128-n8:16:32:64-S128"
target triple = "x86_64-pc-linux-gnu"

%class.QString = type { %struct.QArrayDataPointer }
%struct.QArrayDataPointer = type { ptr, ptr, i64 }
%class.ProgressFrame = type { %class.QFrame, ptr, %struct.progdlg, %class.QString, %class.QString, i8, ptr, i32, ptr, ptr }
%class.QFrame = type { %class.QWidget }
%class.QWidget = type { %class.QObject, %class.QPaintDevice.base, ptr }
%class.QObject = type { ptr, %class.QScopedPointer }
%class.QScopedPointer = type { ptr }
%class.QPaintDevice.base = type <{ ptr, i16 }>
%struct.progdlg = type { ptr, ptr }
%class.Ui_ProgressFrame = type { ptr, ptr, ptr, ptr }

; Function Attrs: mustprogress null_pointer_is_valid sspstrong uwtable
define void @_ZN13ProgressFrame15setMaximumValueEi(ptr noundef align 8 dereferenceable_or_null(152) %0, i32 noundef %1) #0 align 2 {
  %3 = alloca ptr, align 8
  %4 = alloca i32, align 4
  store ptr %0, ptr %3, align 8
  store i32 %1, ptr %4, align 4
  %5 = load ptr, ptr %3, align 8
  %6 = getelementptr inbounds nuw %class.ProgressFrame, ptr %5, i32 0, i32 1
  %7 = load ptr, ptr %6, align 8
  %8 = getelementptr inbounds nuw %class.Ui_ProgressFrame, ptr %7, i32 0, i32 2
  %9 = load ptr, ptr %8, align 8
  %10 = load i32, ptr %4, align 4
  call void @_ZN12QProgressBar10setMaximumEi(ptr noundef align 8 dereferenceable_or_null(40) %9, i32 noundef %10)
  %11 = load i32, ptr %4, align 4
  call void @_ZN13ProgressFrame19maximumValueChangedEi(ptr noundef align 8 dereferenceable_or_null(152) %5, i32 noundef %11)
  ret void
}

; Function Attrs: mustprogress null_pointer_is_valid sspstrong uwtable
define noundef ptr @_ZN13ProgressFrame8showBusyEbbPb(ptr noundef align 8 dereferenceable_or_null(152) %0, i1 noundef zeroext %1, i1 noundef zeroext %2, ptr noundef %3) #0 align 2 {
  %5 = alloca ptr, align 8
  %6 = alloca i8, align 1
  %7 = alloca i8, align 1
  %8 = alloca ptr, align 8
  store ptr %0, ptr %5, align 8
  %9 = zext i1 %1 to i8
  store i8 %9, ptr %6, align 1
  %10 = zext i1 %2 to i8
  store i8 %10, ptr %7, align 1
  store ptr %3, ptr %8, align 8
  %11 = load ptr, ptr %5, align 8
  call void @_ZN13ProgressFrame15setMaximumValueEi(ptr noundef align 8 dereferenceable_or_null(152) %11, i32 noundef 0)
  %12 = load i8, ptr %6, align 1, !range !6, !noundef !7
  %13 = trunc i8 %12 to i1
  %14 = load i8, ptr %7, align 1, !range !6, !noundef !7
  %15 = trunc i8 %14 to i1
  %16 = load ptr, ptr %8, align 8
  call void @_ZN13ProgressFrame13showRequestedEbbPb(ptr noundef align 8 dereferenceable_or_null(152) %11, i1 noundef zeroext %13, i1 noundef zeroext %15, ptr noundef %16)
  %17 = getelementptr inbounds nuw %class.ProgressFrame, ptr %11, i32 0, i32 2
  ret ptr %17
}