; Function Attrs: mustprogress null_pointer_is_valid sspstrong uwtable
define noundef nonnull ptr @_ZN13ProgressFrame8showBusyEbbPb(ptr noundef align 8 dereferenceable_or_null(152) %0, i1 noundef zeroext %1, i1 noundef zeroext %2, ptr noundef %3) local_unnamed_addr #0 align 2 {
  %5 = getelementptr inbounds nuw i8, ptr %0, i64 40
  %6 = load ptr, ptr %5, align 8
  %7 = getelementptr inbounds nuw i8, ptr %6, i64 16
  %8 = load ptr, ptr %7, align 8
  tail call void @_ZN12QProgressBar10setMaximumEi(ptr noundef align 8 dereferenceable_or_null(40) %8, i32 noundef 0)
  tail call void @_ZN13ProgressFrame19maximumValueChangedEi(ptr noundef align 8 dereferenceable_or_null(152) %0, i32 noundef 0)
  tail call void @_ZN13ProgressFrame13showRequestedEbbPb(ptr noundef align 8 dereferenceable_or_null(152) %0, i1 noundef zeroext %1, i1 noundef zeroext %2, ptr noundef %3)
  %9 = getelementptr inbounds nuw i8, ptr %0, i64 48
  ret ptr %9
}